(dp0
S'Rob'
p1
cnumpy.core.multiarray
scalar
p2
(cnumpy
dtype
p3
(S'f8'
p4
I0
I1
tp5
Rp6
(I3
S'<'
p7
NNNI-1
I-1
I0
tp8
bS'\x0c\xc1H\x85\xd5\x93\xe8?'
p9
tp10
Rp11
sS'LSE'
p12
g2
(g6
S"a%\xe9\xac8'\xda?"
p13
tp14
Rp15
sS'Rgl'
p16
g2
(g6
S'\x92f\x99[]\x10\xd9?'
p17
tp18
Rp19
sS'Bayes'
p20
g2
(g6
S'\x1a$\xa9\xfa\xd7b\xdd?'
p21
tp22
Rp23
sS'Las'
p24
g2
(g6
S'\xce\xfd:\x02\xfd\x03\xd7?'
p25
tp26
Rp27
s.